@ Generated by gcc 2.95.3 20010315 (release) for ARM/elf
	.file	"initfini.c"
gcc2_compiled.:
	
/*@HEADER_ENDS*/
.text
	.align	2
	.global	dummy
	.type	 dummy,function
dummy:
	@ args = 0, pretend = 0, frame = 0
	@ frame_needed = 1, current_function_anonymous_args = 0
	mov	ip, sp
	stmfd	sp!, {fp, ip, lr, pc}
	sub	fp, ip, #4
	cmp	r0, #0
	ldmeqea	fp, {fp, sp, pc}
	mov	lr, pc
	mov	pc, r0
	ldmea	fp, {fp, sp, pc}
.Lfe1:
	.size	 dummy,.Lfe1-dummy
	
/*@_init_PROLOG_BEGINS*/
	
/*@_init_GMON_STUFF_BEGINS*/
	.align	2
	.type	 call_gmon_start,function
call_gmon_start:
	@ args = 0, pretend = 0, frame = 0
	@ frame_needed = 1, current_function_anonymous_args = 0
	mov	ip, sp
	stmfd	sp!, {sl, fp, ip, lr, pc}
	ldr	sl, .L7
	ldr	r3, .L7+4
.L6:
	add	sl, pc, sl
	ldr	r3, [sl, r3]
	sub	fp, ip, #4
	cmp	r3, #0
	ldmeqea	fp, {sl, fp, sp, pc}
	mov	lr, pc
	mov	pc, r3
	ldmea	fp, {sl, fp, sp, pc}
.L8:
	.align	2
.L7:
	.word	_GLOBAL_OFFSET_TABLE_-(.L6+8)
	.word	__gmon_start__(GOT)
.Lfe2:
	.size	 call_gmon_start,.Lfe2-call_gmon_start
	
/*@_init_GMON_STUFF_PAUSES*/
	.section .init
	.align	2
	.global	_init
	.type	 _init,function
_init:
	@ args = 0, pretend = 0, frame = 0
	@ frame_needed = 1, current_function_anonymous_args = 0
	mov	ip, sp
	stmfd	sp!, {fp, ip, lr, pc}
	sub	fp, ip, #4
	
/*@_init_GMON_STUFF_UNPAUSES*/
	bl	call_gmon_start(PLT)
	
/*@_init_GMON_STUFF_ENDS*/
	ALIGN
	END_INIT
	
/*@_init_PROLOG_ENDS*/
	
/*@_init_EPILOG_BEGINS*/
	ldmea	fp, {fp, sp, pc}
.Lfe3:
	.size	 _init,.Lfe3-_init
	
/*@_init_EPILOG_ENDS*/
	
/*@_fini_PROLOG_BEGINS*/
	.section .fini
	.align	2
	.global	_fini
	.type	 _fini,function
_fini:
	@ args = 0, pretend = 0, frame = 0
	@ frame_needed = 1, current_function_anonymous_args = 0
	mov	ip, sp
	stmfd	sp!, {fp, ip, lr, pc}
	sub	fp, ip, #4
	ALIGN
	END_FINI
	
/*@_fini_PROLOG_ENDS*/
	bl	i_am_not_a_leaf2(PLT)
	
/*@_fini_EPILOG_BEGINS*/
	ldmea	fp, {fp, sp, pc}
.Lfe4:
	.size	 _fini,.Lfe4-_fini
	
/*@_fini_EPILOG_ENDS*/
	
/*@TRAILER_BEGINS*/
	.weak	__gmon_start__
	.ident	"GCC: (GNU) 2.95.3 20010315 (release)"
